target datalayout = "e-m:e-p270:32:32-p271:32:32-p272:64:64-i64:64-i128:128-f80:128-n8:16:32:64-S128"
target triple = "x86_64-pc-linux-gnu"

%struct.Vec_Que_t_ = type { i32, i32, ptr, ptr, ptr }

; Function Attrs: inlinehint nounwind uwtable
define internal float @Vec_QuePrio(ptr noundef %0, i32 noundef %1) #2 {
  %3 = alloca ptr, align 8
  %4 = alloca i32, align 4
  store ptr %0, ptr %3, align 8, !tbaa !61
  store i32 %1, ptr %4, align 4, !tbaa !10
  %5 = load ptr, ptr %3, align 8, !tbaa !61
  %6 = getelementptr inbounds nuw %struct.Vec_Que_t_, ptr %5, i32 0, i32 4
  %7 = load ptr, ptr %6, align 8, !tbaa !89
  %8 = load ptr, ptr %7, align 8, !tbaa !90
  %9 = icmp ne ptr %8, null
  br i1 %9, label %10, label %19

10:                                               ; preds = %2
  %11 = load ptr, ptr %3, align 8, !tbaa !61
  %12 = getelementptr inbounds nuw %struct.Vec_Que_t_, ptr %11, i32 0, i32 4
  %13 = load ptr, ptr %12, align 8, !tbaa !89
  %14 = load ptr, ptr %13, align 8, !tbaa !90
  %15 = load i32, ptr %4, align 4, !tbaa !10
  %16 = sext i32 %15 to i64
  %17 = getelementptr inbounds float, ptr %14, i64 %16
  %18 = load float, ptr %17, align 4, !tbaa !57
  br label %22

19:                                               ; preds = %2
  %20 = load i32, ptr %4, align 4, !tbaa !10
  %21 = sitofp i32 %20 to float
  br label %22

22:                                               ; preds = %19, %10
  %23 = phi float [ %18, %10 ], [ %21, %19 ]
  ret float %23
}

; Function Attrs: inlinehint nounwind uwtable
define internal void @Vec_QueMoveDown(ptr noundef %0, i32 noundef %1) #2 {
  %3 = alloca ptr, align 8
  %4 = alloca i32, align 4
  %5 = alloca float, align 4
  %6 = alloca i32, align 4
  %7 = alloca i32, align 4
  store ptr %0, ptr %3, align 8, !tbaa !61
  store i32 %1, ptr %4, align 4, !tbaa !10
  call void @llvm.lifetime.start.p0(i64 4, ptr %5) #9
  %8 = load ptr, ptr %3, align 8, !tbaa !61
  %9 = load i32, ptr %4, align 4, !tbaa !10
  %10 = call float @Vec_QuePrio(ptr noundef %8, i32 noundef %9)
  store float %10, ptr %5, align 4, !tbaa !57
  call void @llvm.lifetime.start.p0(i64 4, ptr %6) #9
  %11 = load ptr, ptr %3, align 8, !tbaa !61
  %12 = getelementptr inbounds nuw %struct.Vec_Que_t_, ptr %11, i32 0, i32 3
  %13 = load ptr, ptr %12, align 8, !tbaa !65
  %14 = load i32, ptr %4, align 4, !tbaa !10
  %15 = sext i32 %14 to i64
  %16 = getelementptr inbounds i32, ptr %13, i64 %15
  %17 = load i32, ptr %16, align 4, !tbaa !10
  store i32 %17, ptr %6, align 4, !tbaa !10
  call void @llvm.lifetime.start.p0(i64 4, ptr %7) #9
  %18 = load i32, ptr %6, align 4, !tbaa !10
  %19 = shl i32 %18, 1
  store i32 %19, ptr %7, align 4, !tbaa !10
  br label %20

20:                                               ; preds = %70, %2
  %21 = load i32, ptr %7, align 4, !tbaa !10
  %22 = load ptr, ptr %3, align 8, !tbaa !61
  %23 = getelementptr inbounds nuw %struct.Vec_Que_t_, ptr %22, i32 0, i32 1
  %24 = load i32, ptr %23, align 4, !tbaa !66
  %25 = icmp slt i32 %21, %24
  br i1 %25, label %26, label %100

26:                                               ; preds = %20
  %27 = load i32, ptr %7, align 4, !tbaa !10
  %28 = add nsw i32 %27, 1
  %29 = load ptr, ptr %3, align 8, !tbaa !61
  %30 = getelementptr inbounds nuw %struct.Vec_Que_t_, ptr %29, i32 0, i32 1
  %31 = load i32, ptr %30, align 4, !tbaa !66
  %32 = icmp slt i32 %28, %31
  br i1 %32, label %33, label %57

33:                                               ; preds = %26
  %34 = load ptr, ptr %3, align 8, !tbaa !61
  %35 = load ptr, ptr %3, align 8, !tbaa !61
  %36 = getelementptr inbounds nuw %struct.Vec_Que_t_, ptr %35, i32 0, i32 2
  %37 = load ptr, ptr %36, align 8, !tbaa !67
  %38 = load i32, ptr %7, align 4, !tbaa !10
  %39 = sext i32 %38 to i64
  %40 = getelementptr inbounds i32, ptr %37, i64 %39
  %41 = load i32, ptr %40, align 4, !tbaa !10
  %42 = call float @Vec_QuePrio(ptr noundef %34, i32 noundef %41)
  %43 = load ptr, ptr %3, align 8, !tbaa !61
  %44 = load ptr, ptr %3, align 8, !tbaa !61
  %45 = getelementptr inbounds nuw %struct.Vec_Que_t_, ptr %44, i32 0, i32 2
  %46 = load ptr, ptr %45, align 8, !tbaa !67
  %47 = load i32, ptr %7, align 4, !tbaa !10
  %48 = add nsw i32 %47, 1
  %49 = sext i32 %48 to i64
  %50 = getelementptr inbounds i32, ptr %46, i64 %49
  %51 = load i32, ptr %50, align 4, !tbaa !10
  %52 = call float @Vec_QuePrio(ptr noundef %43, i32 noundef %51)
  %53 = fcmp olt float %42, %52
  br i1 %53, label %54, label %57

54:                                               ; preds = %33
  %55 = load i32, ptr %7, align 4, !tbaa !10
  %56 = add nsw i32 %55, 1
  store i32 %56, ptr %7, align 4, !tbaa !10
  br label %57

57:                                               ; preds = %54, %33, %26
  %58 = load float, ptr %5, align 4, !tbaa !57
  %59 = load ptr, ptr %3, align 8, !tbaa !61
  %60 = load ptr, ptr %3, align 8, !tbaa !61
  %61 = getelementptr inbounds nuw %struct.Vec_Que_t_, ptr %60, i32 0, i32 2
  %62 = load ptr, ptr %61, align 8, !tbaa !67
  %63 = load i32, ptr %7, align 4, !tbaa !10
  %64 = sext i32 %63 to i64
  %65 = getelementptr inbounds i32, ptr %62, i64 %64
  %66 = load i32, ptr %65, align 4, !tbaa !10
  %67 = call float @Vec_QuePrio(ptr noundef %59, i32 noundef %66)
  %68 = fcmp oge float %58, %67
  br i1 %68, label %69, label %70

69:                                               ; preds = %57
  br label %100

70:                                               ; preds = %57
  %71 = load ptr, ptr %3, align 8, !tbaa !61
  %72 = getelementptr inbounds nuw %struct.Vec_Que_t_, ptr %71, i32 0, i32 2
  %73 = load ptr, ptr %72, align 8, !tbaa !67
  %74 = load i32, ptr %7, align 4, !tbaa !10
  %75 = sext i32 %74 to i64
  %76 = getelementptr inbounds i32, ptr %73, i64 %75
  %77 = load i32, ptr %76, align 4, !tbaa !10
  %78 = load ptr, ptr %3, align 8, !tbaa !61
  %79 = getelementptr inbounds nuw %struct.Vec_Que_t_, ptr %78, i32 0, i32 2
  %80 = load ptr, ptr %79, align 8, !tbaa !67
  %81 = load i32, ptr %6, align 4, !tbaa !10
  %82 = sext i32 %81 to i64
  %83 = getelementptr inbounds i32, ptr %80, i64 %82
  store i32 %77, ptr %83, align 4, !tbaa !10
  %84 = load i32, ptr %6, align 4, !tbaa !10
  %85 = load ptr, ptr %3, align 8, !tbaa !61
  %86 = getelementptr inbounds nuw %struct.Vec_Que_t_, ptr %85, i32 0, i32 3
  %87 = load ptr, ptr %86, align 8, !tbaa !65
  %88 = load ptr, ptr %3, align 8, !tbaa !61
  %89 = getelementptr inbounds nuw %struct.Vec_Que_t_, ptr %88, i32 0, i32 2
  %90 = load ptr, ptr %89, align 8, !tbaa !67
  %91 = load i32, ptr %6, align 4, !tbaa !10
  %92 = sext i32 %91 to i64
  %93 = getelementptr inbounds i32, ptr %90, i64 %92
  %94 = load i32, ptr %93, align 4, !tbaa !10
  %95 = sext i32 %94 to i64
  %96 = getelementptr inbounds i32, ptr %87, i64 %95
  store i32 %84, ptr %96, align 4, !tbaa !10
  %97 = load i32, ptr %7, align 4, !tbaa !10
  store i32 %97, ptr %6, align 4, !tbaa !10
  %98 = load i32, ptr %7, align 4, !tbaa !10
  %99 = shl i32 %98, 1
  store i32 %99, ptr %7, align 4, !tbaa !10
  br label %20, !llvm.loop !88

100:                                              ; preds = %69, %20
  %101 = load i32, ptr %4, align 4, !tbaa !10
  %102 = load ptr, ptr %3, align 8, !tbaa !61
  %103 = getelementptr inbounds nuw %struct.Vec_Que_t_, ptr %102, i32 0, i32 2
  %104 = load ptr, ptr %103, align 8, !tbaa !67
  %105 = load i32, ptr %6, align 4, !tbaa !10
  %106 = sext i32 %105 to i64
  %107 = getelementptr inbounds i32, ptr %104, i64 %106
  store i32 %101, ptr %107, align 4, !tbaa !10
  %108 = load i32, ptr %6, align 4, !tbaa !10
  %109 = load ptr, ptr %3, align 8, !tbaa !61
  %110 = getelementptr inbounds nuw %struct.Vec_Que_t_, ptr %109, i32 0, i32 3
  %111 = load ptr, ptr %110, align 8, !tbaa !65
  %112 = load i32, ptr %4, align 4, !tbaa !10
  %113 = sext i32 %112 to i64
  %114 = getelementptr inbounds i32, ptr %111, i64 %113
  store i32 %108, ptr %114, align 4, !tbaa !10
  call void @llvm.lifetime.end.p0(i64 4, ptr %7) #9
  call void @llvm.lifetime.end.p0(i64 4, ptr %6) #9
  call void @llvm.lifetime.end.p0(i64 4, ptr %5) #9
  ret void
}

; Function Attrs: inlinehint nounwind uwtable
define internal i32 @Vec_QueMoveUp(ptr noundef %0, i32 noundef %1) #2 {
  %3 = alloca ptr, align 8
  %4 = alloca i32, align 4
  %5 = alloca float, align 4
  %6 = alloca i32, align 4
  %7 = alloca i32, align 4
  %8 = alloca i32, align 4
  store ptr %0, ptr %3, align 8, !tbaa !61
  store i32 %1, ptr %4, align 4, !tbaa !10
  call void @llvm.lifetime.start.p0(i64 4, ptr %5) #9
  %9 = load ptr, ptr %3, align 8, !tbaa !61
  %10 = load i32, ptr %4, align 4, !tbaa !10
  %11 = call float @Vec_QuePrio(ptr noundef %9, i32 noundef %10)
  store float %11, ptr %5, align 4, !tbaa !57
  call void @llvm.lifetime.start.p0(i64 4, ptr %6) #9
  %12 = load ptr, ptr %3, align 8, !tbaa !61
  %13 = getelementptr inbounds nuw %struct.Vec_Que_t_, ptr %12, i32 0, i32 3
  %14 = load ptr, ptr %13, align 8, !tbaa !65
  %15 = load i32, ptr %4, align 4, !tbaa !10
  %16 = sext i32 %15 to i64
  %17 = getelementptr inbounds i32, ptr %14, i64 %16
  %18 = load i32, ptr %17, align 4, !tbaa !10
  store i32 %18, ptr %6, align 4, !tbaa !10
  call void @llvm.lifetime.start.p0(i64 4, ptr %7) #9
  %19 = load i32, ptr %6, align 4, !tbaa !10
  %20 = ashr i32 %19, 1
  store i32 %20, ptr %7, align 4, !tbaa !10
  call void @llvm.lifetime.start.p0(i64 4, ptr %8) #9
  store i32 0, ptr %8, align 4, !tbaa !10
  br label %21

21:                                               ; preds = %38, %2
  %22 = load i32, ptr %6, align 4, !tbaa !10
  %23 = icmp sgt i32 %22, 1
  br i1 %23, label %24, label %36

24:                                               ; preds = %21
  %25 = load float, ptr %5, align 4, !tbaa !57
  %26 = load ptr, ptr %3, align 8, !tbaa !61
  %27 = load ptr, ptr %3, align 8, !tbaa !61
  %28 = getelementptr inbounds nuw %struct.Vec_Que_t_, ptr %27, i32 0, i32 2
  %29 = load ptr, ptr %28, align 8, !tbaa !67
  %30 = load i32, ptr %7, align 4, !tbaa !10
  %31 = sext i32 %30 to i64
  %32 = getelementptr inbounds i32, ptr %29, i64 %31
  %33 = load i32, ptr %32, align 4, !tbaa !10
  %34 = call float @Vec_QuePrio(ptr noundef %26, i32 noundef %33)
  %35 = fcmp ogt float %25, %34
  br label %36

36:                                               ; preds = %24, %21
  %37 = phi i1 [ false, %21 ], [ %35, %24 ]
  br i1 %37, label %38, label %68

38:                                               ; preds = %36
  %39 = load ptr, ptr %3, align 8, !tbaa !61
  %40 = getelementptr inbounds nuw %struct.Vec_Que_t_, ptr %39, i32 0, i32 2
  %41 = load ptr, ptr %40, align 8, !tbaa !67
  %42 = load i32, ptr %7, align 4, !tbaa !10
  %43 = sext i32 %42 to i64
  %44 = getelementptr inbounds i32, ptr %41, i64 %43
  %45 = load i32, ptr %44, align 4, !tbaa !10
  %46 = load ptr, ptr %3, align 8, !tbaa !61
  %47 = getelementptr inbounds nuw %struct.Vec_Que_t_, ptr %46, i32 0, i32 2
  %48 = load ptr, ptr %47, align 8, !tbaa !67
  %49 = load i32, ptr %6, align 4, !tbaa !10
  %50 = sext i32 %49 to i64
  %51 = getelementptr inbounds i32, ptr %48, i64 %50
  store i32 %45, ptr %51, align 4, !tbaa !10
  %52 = load i32, ptr %6, align 4, !tbaa !10
  %53 = load ptr, ptr %3, align 8, !tbaa !61
  %54 = getelementptr inbounds nuw %struct.Vec_Que_t_, ptr %53, i32 0, i32 3
  %55 = load ptr, ptr %54, align 8, !tbaa !65
  %56 = load ptr, ptr %3, align 8, !tbaa !61
  %57 = getelementptr inbounds nuw %struct.Vec_Que_t_, ptr %56, i32 0, i32 2
  %58 = load ptr, ptr %57, align 8, !tbaa !67
  %59 = load i32, ptr %6, align 4, !tbaa !10
  %60 = sext i32 %59 to i64
  %61 = getelementptr inbounds i32, ptr %58, i64 %60
  %62 = load i32, ptr %61, align 4, !tbaa !10
  %63 = sext i32 %62 to i64
  %64 = getelementptr inbounds i32, ptr %55, i64 %63
  store i32 %52, ptr %64, align 4, !tbaa !10
  %65 = load i32, ptr %7, align 4, !tbaa !10
  store i32 %65, ptr %6, align 4, !tbaa !10
  %66 = load i32, ptr %6, align 4, !tbaa !10
  %67 = ashr i32 %66, 1
  store i32 %67, ptr %7, align 4, !tbaa !10
  store i32 1, ptr %8, align 4, !tbaa !10
  br label %21, !llvm.loop !87

68:                                               ; preds = %36
  %69 = load i32, ptr %4, align 4, !tbaa !10
  %70 = load ptr, ptr %3, align 8, !tbaa !61
  %71 = getelementptr inbounds nuw %struct.Vec_Que_t_, ptr %70, i32 0, i32 2
  %72 = load ptr, ptr %71, align 8, !tbaa !67
  %73 = load i32, ptr %6, align 4, !tbaa !10
  %74 = sext i32 %73 to i64
  %75 = getelementptr inbounds i32, ptr %72, i64 %74
  store i32 %69, ptr %75, align 4, !tbaa !10
  %76 = load i32, ptr %6, align 4, !tbaa !10
  %77 = load ptr, ptr %3, align 8, !tbaa !61
  %78 = getelementptr inbounds nuw %struct.Vec_Que_t_, ptr %77, i32 0, i32 3
  %79 = load ptr, ptr %78, align 8, !tbaa !65
  %80 = load i32, ptr %4, align 4, !tbaa !10
  %81 = sext i32 %80 to i64
  %82 = getelementptr inbounds i32, ptr %79, i64 %81
  store i32 %76, ptr %82, align 4, !tbaa !10
  %83 = load i32, ptr %8, align 4, !tbaa !10
  call void @llvm.lifetime.end.p0(i64 4, ptr %8) #9
  call void @llvm.lifetime.end.p0(i64 4, ptr %7) #9
  call void @llvm.lifetime.end.p0(i64 4, ptr %6) #9
  call void @llvm.lifetime.end.p0(i64 4, ptr %5) #9
  ret i32 %83
}

; Function Attrs: inlinehint nounwind uwtable
define internal void @Vec_QueUpdate(ptr noundef %0, i32 noundef %1) #2 {
  %3 = alloca ptr, align 8
  %4 = alloca i32, align 4
  store ptr %0, ptr %3, align 8, !tbaa !61
  store i32 %1, ptr %4, align 4, !tbaa !10
  %5 = load ptr, ptr %3, align 8, !tbaa !61
  %6 = load i32, ptr %4, align 4, !tbaa !10
  %7 = call i32 @Vec_QueMoveUp(ptr noundef %5, i32 noundef %6)
  %8 = icmp ne i32 %7, 0
  br i1 %8, label %12, label %9

9:                                                ; preds = %2
  %10 = load ptr, ptr %3, align 8, !tbaa !61
  %11 = load i32, ptr %4, align 4, !tbaa !10
  call void @Vec_QueMoveDown(ptr noundef %10, i32 noundef %11)
  br label %12

12:                                               ; preds = %9, %2
  ret void
}